Certificate:
    Data:
        Version: 3 (0x2)
        Serial Number: 13032125481856270363 (0xb4db69141e5c001b)
    Signature Algorithm: sha1WithRSAEncryption
        Issuer: C=US, L=Seattle, OU=DirectInABox, CN=direct.test.vitraag.com/emailAddress=direct.test.vitraag.com
        Validity
            Not Before: Jan 22 00:12:04 2014 GMT
            Not After : Jan 20 00:12:04 2024 GMT
        Subject: C=US, L=Seattle, OU=DirectInABox, CN=direct.test.vitraag.com/emailAddress=direct.test.vitraag.com
        Subject Public Key Info:
            Public Key Algorithm: rsaEncryption
                Public-Key: (2048 bit)
                Modulus:
                    00:b9:ea:02:d0:cb:f8:9a:fc:43:33:a4:16:8d:86:
                    79:a6:59:f3:40:40:e7:31:48:74:ce:18:7a:e6:30:
                    ca:77:4f:17:24:04:34:eb:e4:04:f5:df:63:d9:f4:
                    5f:66:4c:7b:0d:37:9d:6b:d3:34:d9:d1:95:83:c2:
                    a6:ba:84:01:43:fa:7c:f8:61:7c:72:c3:b7:c3:41:
                    14:ba:10:a7:5a:40:31:0f:8d:d5:58:f8:4a:43:cf:
                    8a:d9:63:08:7e:63:2a:ba:07:6a:0a:49:17:48:3c:
                    10:a9:30:15:36:5f:58:3f:bf:bc:8b:eb:ba:be:d9:
                    91:6f:c4:cd:9c:c0:5c:0d:ea:32:5f:b4:45:21:ad:
                    03:9f:22:4c:3b:c4:7e:f5:c6:d6:98:44:1b:57:55:
                    e7:96:f2:99:86:b8:c7:4d:25:47:72:b1:52:4f:bd:
                    a1:4e:f5:38:0a:2c:6f:cc:62:f5:de:24:a4:c4:e2:
                    76:6c:b7:6e:a3:15:cb:6c:9f:85:03:53:c9:2d:90:
                    04:dd:03:71:ea:e9:21:19:01:a8:9a:64:8f:31:c7:
                    75:68:20:6f:07:02:fa:be:46:34:5a:3d:72:e1:03:
                    bc:7c:0d:ac:04:b3:6f:65:2b:92:67:bc:29:32:74:
                    61:0e:aa:e6:24:c5:d1:1a:eb:cb:b7:f1:62:de:73:
                    78:f9
                Exponent: 65537 (0x10001)
        X509v3 extensions:
            X509v3 Basic Constraints: critical
                CA:TRUE
            X509v3 Subject Alternative Name: 
                DNS:direct.test.vitraag.com
            X509v3 Subject Key Identifier: 
                54:5D:95:DD:E0:FE:6C:F6:74:21:86:34:E9:55:E1:BE:2F:C7:DA:C6
            X509v3 Authority Key Identifier: 
                keyid:54:5D:95:DD:E0:FE:6C:F6:74:21:86:34:E9:55:E1:BE:2F:C7:DA:C6
                DirName:/C=US/L=Seattle/OU=DirectInABox/CN=direct.test.vitraag.com/emailAddress=direct.test.vitraag.com
                serial:B4:DB:69:14:1E:5C:00:1B

    Signature Algorithm: sha1WithRSAEncryption
         21:6a:73:52:4b:a2:5f:47:b1:a6:26:2d:88:e5:dc:67:c1:a7:
         c5:c3:9c:07:94:25:a4:97:66:e8:eb:f2:5c:99:95:15:8e:31:
         5b:b2:cc:8e:bc:c3:b7:3d:6b:44:8b:dd:10:c9:54:14:3a:5a:
         bb:9b:29:5f:2a:22:d1:25:94:20:ba:65:f6:a5:72:2a:f0:5b:
         2f:51:c2:a0:7d:45:c5:b5:9a:56:f0:47:64:85:71:4d:e1:c9:
         2a:ba:d2:21:b1:4e:b9:1c:fe:4b:eb:7a:f3:c2:ce:dd:60:cf:
         e4:49:47:b6:33:da:6d:73:84:d3:94:69:89:ee:6f:8e:85:22:
         1f:25:58:73:c5:b0:b1:13:eb:82:41:a0:7c:bf:f7:6e:a0:5e:
         a7:04:fe:40:4c:b2:2e:0e:91:df:fe:20:01:6d:1f:38:e8:b1:
         73:cd:69:15:20:9f:a2:31:e6:b3:f2:70:21:48:5f:8d:4a:69:
         7f:80:2b:05:3d:b9:8d:5c:ef:75:fe:43:53:aa:09:86:a6:3a:
         51:e8:8e:99:d5:b0:e1:13:0c:ba:8d:8a:ab:af:bf:b6:c9:ad:
         34:15:50:ba:8b:d0:ad:c3:57:e7:11:3f:65:cd:9f:60:70:d9:
         52:0a:1b:ce:1d:b0:99:95:a2:60:77:9e:45:22:61:4e:63:47:
         0d:9f:cd:03
-----BEGIN CERTIFICATE-----
MIIElzCCA3+gAwIBAgIJALTbaRQeXAAbMA0GCSqGSIb3DQEBBQUAMIGAMQswCQYD
VQQGEwJVUzEQMA4GA1UEBxMHU2VhdHRsZTEVMBMGA1UECxMMRGlyZWN0SW5BQm94
MSAwHgYDVQQDExdkaXJlY3QudGVzdC52aXRyYWFnLmNvbTEmMCQGCSqGSIb3DQEJ
ARYXZGlyZWN0LnRlc3Qudml0cmFhZy5jb20wHhcNMTQwMTIyMDAxMjA0WhcNMjQw
MTIwMDAxMjA0WjCBgDELMAkGA1UEBhMCVVMxEDAOBgNVBAcTB1NlYXR0bGUxFTAT
BgNVBAsTDERpcmVjdEluQUJveDEgMB4GA1UEAxMXZGlyZWN0LnRlc3Qudml0cmFh
Zy5jb20xJjAkBgkqhkiG9w0BCQEWF2RpcmVjdC50ZXN0LnZpdHJhYWcuY29tMIIB
IjANBgkqhkiG9w0BAQEFAAOCAQ8AMIIBCgKCAQEAueoC0Mv4mvxDM6QWjYZ5plnz
QEDnMUh0zhh65jDKd08XJAQ06+QE9d9j2fRfZkx7DTeda9M02dGVg8KmuoQBQ/p8
+GF8csO3w0EUuhCnWkAxD43VWPhKQ8+K2WMIfmMqugdqCkkXSDwQqTAVNl9YP7+8
i+u6vtmRb8TNnMBcDeoyX7RFIa0DnyJMO8R+9cbWmEQbV1XnlvKZhrjHTSVHcrFS
T72hTvU4CixvzGL13iSkxOJ2bLduoxXLbJ+FA1PJLZAE3QNx6ukhGQGommSPMcd1
aCBvBwL6vkY0Wj1y4QO8fA2sBLNvZSuSZ7wpMnRhDqrmJMXRGuvLt/Fi3nN4+QID
AQABo4IBEDCCAQwwDwYDVR0TAQH/BAUwAwEB/zAiBgNVHREEGzAZghdkaXJlY3Qu
dGVzdC52aXRyYWFnLmNvbTAdBgNVHQ4EFgQUVF2V3eD+bPZ0IYY06VXhvi/H2sYw
gbUGA1UdIwSBrTCBqoAUVF2V3eD+bPZ0IYY06VXhvi/H2sahgYakgYMwgYAxCzAJ
BgNVBAYTAlVTMRAwDgYDVQQHEwdTZWF0dGxlMRUwEwYDVQQLEwxEaXJlY3RJbkFC
b3gxIDAeBgNVBAMTF2RpcmVjdC50ZXN0LnZpdHJhYWcuY29tMSYwJAYJKoZIhvcN
AQkBFhdkaXJlY3QudGVzdC52aXRyYWFnLmNvbYIJALTbaRQeXAAbMA0GCSqGSIb3
DQEBBQUAA4IBAQAhanNSS6JfR7GmJi2I5dxnwafFw5wHlCWkl2bo6/JcmZUVjjFb
ssyOvMO3PWtEi90QyVQUOlq7mylfKiLRJZQgumX2pXIq8FsvUcKgfUXFtZpW8Edk
hXFN4ckqutIhsU65HP5L63rzws7dYM/kSUe2M9ptc4TTlGmJ7m+OhSIfJVhzxbCx
E+uCQaB8v/duoF6nBP5ATLIuDpHf/iABbR846LFzzWkVIJ+iMeaz8nAhSF+NSml/
gCsFPbmNXO91/kNTqgmGpjpR6I6Z1bDhEwy6jYqrr7+2ya00FVC6i9Ctw1fnET9l
zZ9gcNlSChvOHbCZlaJgd55FImFOY0cNn80D
-----END CERTIFICATE-----
