Certificate:
    Data:
        Version: 3 (0x2)
        Serial Number: 17770674631028680337 (0xf69e1e6c8182a691)
    Signature Algorithm: sha1WithRSAEncryption
        Issuer: C=US, L=Boston, OU=SMART Platforms, CN=direct.test.vitraag.com/emailAddress=direct.test.vitraag.com
        Validity
            Not Before: Jan 10 02:43:21 2014 GMT
            Not After : Jan  8 02:43:21 2024 GMT
        Subject: C=US, L=Boston, OU=SMART Platforms, CN=direct.test.vitraag.com/emailAddress=direct.test.vitraag.com
        Subject Public Key Info:
            Public Key Algorithm: rsaEncryption
                Public-Key: (2048 bit)
                Modulus:
                    00:ba:f8:ad:ec:94:56:0c:14:86:64:e3:75:29:3e:
                    3b:63:40:0f:ab:1a:f2:fe:d2:c2:ce:f0:ec:05:1a:
                    20:44:10:4f:eb:f8:86:27:80:0a:38:16:0c:ab:bd:
                    46:84:00:16:a7:59:03:1e:27:6b:e0:e8:91:3f:56:
                    ed:b7:9b:44:3f:42:51:33:fb:a3:62:bf:f0:0e:df:
                    1e:35:25:25:f0:69:07:d0:47:cd:c3:83:fb:4b:b9:
                    13:cf:46:5b:84:3a:29:fe:f5:0a:0c:e5:b1:19:00:
                    ef:5b:97:64:97:99:0f:6c:7a:b6:1f:41:55:4b:8a:
                    6b:47:aa:db:20:fe:08:d3:7e:77:92:d9:0a:80:c1:
                    0e:87:28:5a:91:ee:d2:f6:1a:8b:a2:3d:b6:da:32:
                    e7:b9:50:62:a0:25:8c:f1:c3:99:d5:e0:5a:03:29:
                    15:ef:ee:7e:be:a3:c2:71:5e:f8:bc:53:5c:53:39:
                    f5:c0:15:15:f9:ac:ed:62:b5:46:30:b4:7a:ff:50:
                    48:04:e1:41:b0:23:bf:67:3e:50:b2:25:cf:ad:cc:
                    4f:c5:17:1b:94:ce:42:be:00:3d:42:3a:c6:e7:31:
                    63:96:71:84:97:80:73:a9:1f:9b:36:78:1d:74:36:
                    ae:fe:05:7b:e9:ff:da:e7:51:06:93:be:70:9c:00:
                    79:3d
                Exponent: 65537 (0x10001)
        X509v3 extensions:
            X509v3 Basic Constraints: critical
                CA:TRUE
            X509v3 Subject Alternative Name: 
                DNS:direct.test.vitraag.com
            X509v3 Subject Key Identifier: 
                65:05:E0:8D:B2:9C:F2:41:9A:0C:9D:F0:16:45:D0:8E:CD:E2:E9:BE
            X509v3 Authority Key Identifier: 
                keyid:65:05:E0:8D:B2:9C:F2:41:9A:0C:9D:F0:16:45:D0:8E:CD:E2:E9:BE
                DirName:/C=US/L=Boston/OU=SMART Platforms/CN=direct.test.vitraag.com/emailAddress=direct.test.vitraag.com
                serial:F6:9E:1E:6C:81:82:A6:91

    Signature Algorithm: sha1WithRSAEncryption
         61:0a:8c:89:59:8c:c0:fd:b9:b3:40:3c:57:f6:36:97:04:49:
         90:0f:a0:90:33:64:d4:83:5d:f4:0f:35:84:2a:29:8a:0f:83:
         15:6c:d1:ff:4d:06:91:90:08:83:ff:ab:71:c3:5c:90:a3:4e:
         b9:88:f4:ae:1f:3b:7e:a7:a2:82:d8:3e:91:c6:67:41:f1:1e:
         2f:38:86:27:02:86:a5:e3:86:32:4b:45:f8:b7:29:ab:b8:fc:
         5b:a7:7a:0a:5a:34:cf:a8:27:c0:53:a7:fe:ec:b6:08:15:3f:
         35:f7:96:7e:ce:f8:1f:21:41:2c:73:51:6a:1b:6b:e1:fb:e9:
         50:5b:65:be:14:97:eb:8c:3b:b0:46:6b:cd:de:98:85:46:32:
         01:d2:1b:89:f7:5f:03:01:1d:e6:19:86:5c:89:bb:5d:04:31:
         01:33:d6:c9:37:11:45:ca:67:77:a3:c2:1c:c7:e9:0f:4e:5a:
         22:dc:d1:fb:da:e8:c0:49:96:b1:f9:c9:e9:b8:f0:d6:a2:fe:
         4d:6b:b2:6c:4d:6b:ba:53:3f:b4:4a:bf:14:be:ed:c6:c6:91:
         f3:b6:70:93:13:84:0e:7c:00:a3:45:4e:66:dc:0e:3e:92:42:
         12:28:d7:0e:d1:ba:41:c0:d8:6f:84:88:63:40:b8:75:51:e1:
         4a:d4:cd:64
-----BEGIN CERTIFICATE-----
MIIEnTCCA4WgAwIBAgIJAPaeHmyBgqaRMA0GCSqGSIb3DQEBBQUAMIGCMQswCQYD
VQQGEwJVUzEPMA0GA1UEBxMGQm9zdG9uMRgwFgYDVQQLEw9TTUFSVCBQbGF0Zm9y
bXMxIDAeBgNVBAMTF2RpcmVjdC50ZXN0LnZpdHJhYWcuY29tMSYwJAYJKoZIhvcN
AQkBFhdkaXJlY3QudGVzdC52aXRyYWFnLmNvbTAeFw0xNDAxMTAwMjQzMjFaFw0y
NDAxMDgwMjQzMjFaMIGCMQswCQYDVQQGEwJVUzEPMA0GA1UEBxMGQm9zdG9uMRgw
FgYDVQQLEw9TTUFSVCBQbGF0Zm9ybXMxIDAeBgNVBAMTF2RpcmVjdC50ZXN0LnZp
dHJhYWcuY29tMSYwJAYJKoZIhvcNAQkBFhdkaXJlY3QudGVzdC52aXRyYWFnLmNv
bTCCASIwDQYJKoZIhvcNAQEBBQADggEPADCCAQoCggEBALr4reyUVgwUhmTjdSk+
O2NAD6sa8v7Sws7w7AUaIEQQT+v4hieACjgWDKu9RoQAFqdZAx4na+DokT9W7beb
RD9CUTP7o2K/8A7fHjUlJfBpB9BHzcOD+0u5E89GW4Q6Kf71CgzlsRkA71uXZJeZ
D2x6th9BVUuKa0eq2yD+CNN+d5LZCoDBDocoWpHu0vYai6I9ttoy57lQYqAljPHD
mdXgWgMpFe/ufr6jwnFe+LxTXFM59cAVFfms7WK1RjC0ev9QSAThQbAjv2c+ULIl
z63MT8UXG5TOQr4APUI6xucxY5ZxhJeAc6kfmzZ4HXQ2rv4Fe+n/2udRBpO+cJwA
eT0CAwEAAaOCARIwggEOMA8GA1UdEwEB/wQFMAMBAf8wIgYDVR0RBBswGYIXZGly
ZWN0LnRlc3Qudml0cmFhZy5jb20wHQYDVR0OBBYEFGUF4I2ynPJBmgyd8BZF0I7N
4um+MIG3BgNVHSMEga8wgayAFGUF4I2ynPJBmgyd8BZF0I7N4um+oYGIpIGFMIGC
MQswCQYDVQQGEwJVUzEPMA0GA1UEBxMGQm9zdG9uMRgwFgYDVQQLEw9TTUFSVCBQ
bGF0Zm9ybXMxIDAeBgNVBAMTF2RpcmVjdC50ZXN0LnZpdHJhYWcuY29tMSYwJAYJ
KoZIhvcNAQkBFhdkaXJlY3QudGVzdC52aXRyYWFnLmNvbYIJAPaeHmyBgqaRMA0G
CSqGSIb3DQEBBQUAA4IBAQBhCoyJWYzA/bmzQDxX9jaXBEmQD6CQM2TUg130DzWE
KimKD4MVbNH/TQaRkAiD/6txw1yQo065iPSuHzt+p6KC2D6RxmdB8R4vOIYnAoal
44YyS0X4tymruPxbp3oKWjTPqCfAU6f+7LYIFT8195Z+zvgfIUEsc1FqG2vh++lQ
W2W+FJfrjDuwRmvN3piFRjIB0huJ918DAR3mGYZcibtdBDEBM9bJNxFFymd3o8Ic
x+kPTloi3NH72ujASZax+cnpuPDWov5Na7JsTWu6Uz+0Sr8Uvu3GxpHztnCTE4QO
fACjRU5m3A4+kkISKNcO0bpBwNhvhIhjQLh1UeFK1M1k
-----END CERTIFICATE-----
